; Function Attrs: mustprogress uwtable
define hidden noundef zeroext i1 @_ZN10polynomial7manager14is_square_freeEPKNS_10polynomialEj(ptr nocapture noundef nonnull readonly align 8 dereferenceable(8) %this, ptr noundef %p, i32 noundef %x) local_unnamed_addr #4 align 2 personality ptr @__gxx_personality_v0 {
entry:
  %r.i = alloca %class.obj_ref, align 8
  %0 = load ptr, ptr %this, align 8
  call void @llvm.lifetime.start.p0(i64 16, ptr nonnull %r.i)
  %m_wrapper.i.i = getelementptr inbounds i8, ptr %0, i64 8
  %1 = load ptr, ptr %m_wrapper.i.i, align 8
  store ptr null, ptr %r.i, align 8
  %m_manager.i.i = getelementptr inbounds i8, ptr %r.i, i64 8
  store ptr %1, ptr %m_manager.i.i, align 8
  invoke void @_ZN10polynomial7manager3imp11square_freeEPKNS_10polynomialEjR7obj_refIS2_S0_E(ptr noundef nonnull align 8 dereferenceable(824) %0, ptr noundef %p, i32 noundef %x, ptr noundef nonnull align 8 dereferenceable(16) %r.i)
          to label %invoke.cont.i unwind label %lpad.i

invoke.cont.i:                                    ; preds = %entry
  %2 = load ptr, ptr %r.i, align 8
  %tobool.not.i.i.i = icmp eq ptr %2, null
  br i1 %tobool.not.i.i.i, label %_ZN10polynomial7manager3imp14is_square_freeEPKNS_10polynomialEj.exit, label %if.then.i.i.i.i

if.then.i.i.i.i:                                  ; preds = %invoke.cont.i
  %3 = load ptr, ptr %m_manager.i.i, align 8
  %4 = load ptr, ptr %3, align 8
  %5 = load i32, ptr %2, align 8
  %dec.i.i.i.i.i.i = add i32 %5, -1
  store i32 %dec.i.i.i.i.i.i, ptr %2, align 8
  %cmp.i.i.i.i.i = icmp eq i32 %dec.i.i.i.i.i.i, 0
  br i1 %cmp.i.i.i.i.i, label %if.then.i.i.i.i.i, label %_ZN10polynomial7manager3imp14is_square_freeEPKNS_10polynomialEj.exit

if.then.i.i.i.i.i:                                ; preds = %if.then.i.i.i.i
  invoke void @_ZN10polynomial7manager3imp3delEPNS_10polynomialE(ptr noundef nonnull align 8 dereferenceable(824) %4, ptr noundef nonnull %2)
          to label %_ZN10polynomial7manager3imp14is_square_freeEPKNS_10polynomialEj.exit unwind label %terminate.lpad.i.i

terminate.lpad.i.i:                               ; preds = %if.then.i.i.i.i.i
  %6 = landingpad { ptr, i32 }
          catch ptr null
  %7 = extractvalue { ptr, i32 } %6, 0
  call void @__clang_call_terminate(ptr %7) #27
  unreachable

lpad.i:                                           ; preds = %entry
  %8 = landingpad { ptr, i32 }
          cleanup
  call void @_ZN7obj_refIN10polynomial10polynomialENS0_7managerEED2Ev(ptr noundef nonnull align 8 dereferenceable(16) %r.i) #28
  resume { ptr, i32 } %8

_ZN10polynomial7manager3imp14is_square_freeEPKNS_10polynomialEj.exit: ; preds = %invoke.cont.i, %if.then.i.i.i.i, %if.then.i.i.i.i.i
  %cmp.i = icmp eq ptr %2, %p
  call void @llvm.lifetime.end.p0(i64 16, ptr nonnull %r.i)
  ret i1 %cmp.i
}